target datalayout = "e-m:e-p270:32:32-p271:32:32-p272:64:64-i64:64-i128:128-f80:128-n8:16:32:64-S128"
target triple = "x86_64-unknown-linux-gnu"

%"class.google::protobuf::Reflection" = type { ptr, %"struct.google::protobuf::internal::ReflectionSchema", ptr, ptr, i32, %"class.absl::lts_20230802::once_flag", ptr }
%"struct.google::protobuf::internal::ReflectionSchema" = type { ptr, ptr, ptr, i32, i32, i32, i32, i32, i32, ptr, i32, i32, i32 }
%"class.absl::lts_20230802::once_flag" = type { %"struct.std::atomic.1" }
%"struct.std::atomic.1" = type { %"struct.std::__atomic_base.2" }
%"struct.std::__atomic_base.2" = type { i32 }
%"struct.google::protobuf::Metadata" = type { ptr, ptr }
%"struct.google::protobuf::internal::DescriptorTable" = type { i8, i8, i32, ptr, ptr, ptr, ptr, i32, i32, ptr, ptr, ptr, ptr, ptr, ptr }

; Function Attrs: mustprogress uwtable
define linkonce_odr hidden void @_ZN6google8protobuf24RegisterAllTypesInternalEPKNS0_8MetadataEi(ptr noundef %file_level_metadata, i32 noundef %size) #5 comdat {
entry:
  %file_level_metadata.addr = alloca ptr, align 8
  %size.addr = alloca i32, align 4
  %i = alloca i32, align 4
  %reflection = alloca ptr, align 8
  store ptr %file_level_metadata, ptr %file_level_metadata.addr, align 8
  store i32 %size, ptr %size.addr, align 4
  store i32 0, ptr %i, align 4
  br label %for.cond

for.cond:                                         ; preds = %for.inc, %entry
  %0 = load i32, ptr %i, align 4
  %1 = load i32, ptr %size.addr, align 4
  %cmp = icmp slt i32 %0, %1
  br i1 %cmp, label %for.body, label %for.end

for.body:                                         ; preds = %for.cond
  %2 = load ptr, ptr %file_level_metadata.addr, align 8
  %3 = load i32, ptr %i, align 4
  %idxprom = sext i32 %3 to i64
  %arrayidx = getelementptr inbounds %"struct.google::protobuf::Metadata", ptr %2, i64 %idxprom
  %reflection1 = getelementptr inbounds %"struct.google::protobuf::Metadata", ptr %arrayidx, i32 0, i32 1
  %4 = load ptr, ptr %reflection1, align 8
  store ptr %4, ptr %reflection, align 8
  %5 = load ptr, ptr %file_level_metadata.addr, align 8
  %6 = load i32, ptr %i, align 4
  %idxprom2 = sext i32 %6 to i64
  %arrayidx3 = getelementptr inbounds %"struct.google::protobuf::Metadata", ptr %5, i64 %idxprom2
  %descriptor = getelementptr inbounds %"struct.google::protobuf::Metadata", ptr %arrayidx3, i32 0, i32 0
  %7 = load ptr, ptr %descriptor, align 8
  %8 = load ptr, ptr %reflection, align 8
  %schema_ = getelementptr inbounds %"class.google::protobuf::Reflection", ptr %8, i32 0, i32 1
  %default_instance_ = getelementptr inbounds %"struct.google::protobuf::internal::ReflectionSchema", ptr %schema_, i32 0, i32 0
  %9 = load ptr, ptr %default_instance_, align 8
  call void @_ZN6google8protobuf14MessageFactory32InternalRegisterGeneratedMessageEPKNS0_10DescriptorEPKNS0_7MessageE(ptr noundef %7, ptr noundef %9)
  br label %for.inc

for.inc:                                          ; preds = %for.body
  %10 = load i32, ptr %i, align 4
  %inc = add nsw i32 %10, 1
  store i32 %inc, ptr %i, align 4
  br label %for.cond, !llvm.loop !60

for.end:                                          ; preds = %for.cond
  ret void
}

; Function Attrs: mustprogress uwtable
define hidden void @_ZN6google8protobuf8internal25RegisterFileLevelMetadataEPKNS1_15DescriptorTableE(ptr noundef %table) #5 {
entry:
  %table.addr = alloca ptr, align 8
  store ptr %table, ptr %table.addr, align 8
  %0 = load ptr, ptr %table.addr, align 8
  call void @_ZN6google8protobuf8internal17AssignDescriptorsEPKNS1_15DescriptorTableE(ptr noundef %0)
  %1 = load ptr, ptr %table.addr, align 8
  %file_level_metadata = getelementptr inbounds %"struct.google::protobuf::internal::DescriptorTable", ptr %1, i32 0, i32 12
  %2 = load ptr, ptr %file_level_metadata, align 8
  %3 = load ptr, ptr %table.addr, align 8
  %num_messages = getelementptr inbounds %"struct.google::protobuf::internal::DescriptorTable", ptr %3, i32 0, i32 8
  %4 = load i32, ptr %num_messages, align 4
  call void @_ZN6google8protobuf24RegisterAllTypesInternalEPKNS0_8MetadataEi(ptr noundef %2, i32 noundef %4)
  ret void
}