; Function Attrs: mustprogress uwtable
define hidden void @_ZN6google8protobuf8internal25RegisterFileLevelMetadataEPKNS1_15DescriptorTableE(ptr noundef %table) local_unnamed_addr #4 {
entry:
  tail call void @_ZN6google8protobuf8internal17AssignDescriptorsEPKNS1_15DescriptorTableE(ptr noundef %table)
  %file_level_metadata = getelementptr inbounds i8, ptr %table, i64 72
  %0 = load ptr, ptr %file_level_metadata, align 8
  %num_messages = getelementptr inbounds i8, ptr %table, i64 44
  %1 = load i32, ptr %num_messages, align 4
  %cmp5.i = icmp sgt i32 %1, 0
  br i1 %cmp5.i, label %for.body.preheader.i, label %_ZN6google8protobuf24RegisterAllTypesInternalEPKNS0_8MetadataEi.exit

for.body.preheader.i:                             ; preds = %entry
  %wide.trip.count.i = zext nneg i32 %1 to i64
  br label %for.body.i

for.body.i:                                       ; preds = %for.body.i, %for.body.preheader.i
  %indvars.iv.i = phi i64 [ 0, %for.body.preheader.i ], [ %indvars.iv.next.i, %for.body.i ]
  %arrayidx.i = getelementptr inbounds %"struct.google::protobuf::Metadata", ptr %0, i64 %indvars.iv.i
  %reflection1.i = getelementptr inbounds i8, ptr %arrayidx.i, i64 8
  %2 = load ptr, ptr %reflection1.i, align 8
  %3 = load ptr, ptr %arrayidx.i, align 8
  %schema_.i = getelementptr inbounds i8, ptr %2, i64 8
  %4 = load ptr, ptr %schema_.i, align 8
  tail call void @_ZN6google8protobuf14MessageFactory32InternalRegisterGeneratedMessageEPKNS0_10DescriptorEPKNS0_7MessageE(ptr noundef %3, ptr noundef %4)
  %indvars.iv.next.i = add nuw nsw i64 %indvars.iv.i, 1
  %exitcond.not.i = icmp eq i64 %indvars.iv.next.i, %wide.trip.count.i
  br i1 %exitcond.not.i, label %_ZN6google8protobuf24RegisterAllTypesInternalEPKNS0_8MetadataEi.exit, label %for.body.i, !llvm.loop !130

_ZN6google8protobuf24RegisterAllTypesInternalEPKNS0_8MetadataEi.exit: ; preds = %for.body.i, %entry
  ret void
}